; ModuleID = '32/2424.c'
source_filename = "32/2424.c"
target datalayout = "e-m:e-p270:32:32-p271:32:32-p272:64:64-i64:64-f80:128-n8:16:32:64-S128"
target triple = "x86_64-pc-linux-gnu"

@.str = private unnamed_addr constant [3 x i8] c"%c\00", align 1
@.str.1 = private unnamed_addr constant [2 x i8] c"\0A\00", align 1
@.str.2 = private unnamed_addr constant [4 x i8] c"%s\0A\00", align 1
@.str.3 = private unnamed_addr constant [3 x i8] c"%d\00", align 1
@.str.4 = private unnamed_addr constant [5 x i8] c"%s%s\00", align 1

; Function Attrs: noinline nounwind uwtable
define dso_local void @sub(i8* %0, i8* %1) #0 {
  %3 = alloca i8*, align 8
  %4 = alloca i8*, align 8
  %5 = alloca i32, align 4
  %6 = alloca i32, align 4
  %7 = alloca i32, align 4
  %8 = alloca i32, align 4
  %9 = alloca i32, align 4
  store i8* %0, i8** %3, align 8
  store i8* %1, i8** %4, align 8
  %10 = load i8*, i8** %3, align 8
  %11 = call i64 @strlen(i8* %10) #3
  %12 = trunc i64 %11 to i32
  store i32 %12, i32* %5, align 4
  %13 = load i8*, i8** %4, align 8
  %14 = call i64 @strlen(i8* %13) #3
  %15 = trunc i64 %14 to i32
  store i32 %15, i32* %6, align 4
  %16 = load i32, i32* %5, align 4
  %17 = sub nsw i32 %16, 1
  store i32 %17, i32* %7, align 4
  %18 = load i32, i32* %6, align 4
  %19 = sub nsw i32 %18, 1
  store i32 %19, i32* %8, align 4
  br label %20

20:                                               ; preds = %129, %2
  %21 = load i32, i32* %8, align 4
  %22 = icmp sge i32 %21, 0
  br i1 %22, label %23, label %134

23:                                               ; preds = %20
  %24 = load i8*, i8** %3, align 8
  %25 = load i32, i32* %7, align 4
  %26 = sext i32 %25 to i64
  %27 = getelementptr inbounds i8, i8* %24, i64 %26
  %28 = load i8, i8* %27, align 1
  %29 = sext i8 %28 to i32
  %30 = load i8*, i8** %4, align 8
  %31 = load i32, i32* %8, align 4
  %32 = sext i32 %31 to i64
  %33 = getelementptr inbounds i8, i8* %30, i64 %32
  %34 = load i8, i8* %33, align 1
  %35 = sext i8 %34 to i32
  %36 = icmp sgt i32 %29, %35
  br i1 %36, label %37, label %57

37:                                               ; preds = %23
  %38 = load i8*, i8** %3, align 8
  %39 = load i32, i32* %7, align 4
  %40 = sext i32 %39 to i64
  %41 = getelementptr inbounds i8, i8* %38, i64 %40
  %42 = load i8, i8* %41, align 1
  %43 = sext i8 %42 to i32
  %44 = load i8*, i8** %4, align 8
  %45 = load i32, i32* %8, align 4
  %46 = sext i32 %45 to i64
  %47 = getelementptr inbounds i8, i8* %44, i64 %46
  %48 = load i8, i8* %47, align 1
  %49 = sext i8 %48 to i32
  %50 = sub nsw i32 %43, %49
  %51 = add nsw i32 %50, 48
  %52 = trunc i32 %51 to i8
  %53 = load i8*, i8** %3, align 8
  %54 = load i32, i32* %7, align 4
  %55 = sext i32 %54 to i64
  %56 = getelementptr inbounds i8, i8* %53, i64 %55
  store i8 %52, i8* %56, align 1
  br label %128

57:                                               ; preds = %23
  %58 = load i8*, i8** %3, align 8
  %59 = load i32, i32* %7, align 4
  %60 = sext i32 %59 to i64
  %61 = getelementptr inbounds i8, i8* %58, i64 %60
  %62 = load i8, i8* %61, align 1
  %63 = sext i8 %62 to i32
  %64 = load i8*, i8** %4, align 8
  %65 = load i32, i32* %8, align 4
  %66 = sext i32 %65 to i64
  %67 = getelementptr inbounds i8, i8* %64, i64 %66
  %68 = load i8, i8* %67, align 1
  %69 = sext i8 %68 to i32
  %70 = icmp eq i32 %63, %69
  br i1 %70, label %71, label %76

71:                                               ; preds = %57
  %72 = load i8*, i8** %3, align 8
  %73 = load i32, i32* %7, align 4
  %74 = sext i32 %73 to i64
  %75 = getelementptr inbounds i8, i8* %72, i64 %74
  store i8 48, i8* %75, align 1
  br label %127

76:                                               ; preds = %57
  %77 = load i8*, i8** %3, align 8
  %78 = load i32, i32* %7, align 4
  %79 = sext i32 %78 to i64
  %80 = getelementptr inbounds i8, i8* %77, i64 %79
  %81 = load i8, i8* %80, align 1
  %82 = sext i8 %81 to i32
  %83 = load i8*, i8** %4, align 8
  %84 = load i32, i32* %8, align 4
  %85 = sext i32 %84 to i64
  %86 = getelementptr inbounds i8, i8* %83, i64 %85
  %87 = load i8, i8* %86, align 1
  %88 = sext i8 %87 to i32
  %89 = sub nsw i32 %82, %88
  %90 = add nsw i32 %89, 58
  %91 = trunc i32 %90 to i8
  %92 = load i8*, i8** %3, align 8
  %93 = load i32, i32* %7, align 4
  %94 = sext i32 %93 to i64
  %95 = getelementptr inbounds i8, i8* %92, i64 %94
  store i8 %91, i8* %95, align 1
  %96 = load i32, i32* %7, align 4
  %97 = sub nsw i32 %96, 1
  store i32 %97, i32* %9, align 4
  br label %98

98:                                               ; preds = %111, %76
  %99 = load i8*, i8** %3, align 8
  %100 = load i32, i32* %9, align 4
  %101 = sext i32 %100 to i64
  %102 = getelementptr inbounds i8, i8* %99, i64 %101
  %103 = load i8, i8* %102, align 1
  %104 = sext i8 %103 to i32
  %105 = icmp eq i32 %104, 48
  br i1 %105, label %106, label %114

106:                                              ; preds = %98
  %107 = load i8*, i8** %3, align 8
  %108 = load i32, i32* %9, align 4
  %109 = sext i32 %108 to i64
  %110 = getelementptr inbounds i8, i8* %107, i64 %109
  store i8 57, i8* %110, align 1
  br label %111

111:                                              ; preds = %106
  %112 = load i32, i32* %9, align 4
  %113 = add nsw i32 %112, -1
  store i32 %113, i32* %9, align 4
  br label %98

114:                                              ; preds = %98
  %115 = load i8*, i8** %3, align 8
  %116 = load i32, i32* %9, align 4
  %117 = sext i32 %116 to i64
  %118 = getelementptr inbounds i8, i8* %115, i64 %117
  %119 = load i8, i8* %118, align 1
  %120 = sext i8 %119 to i32
  %121 = sub nsw i32 %120, 1
  %122 = trunc i32 %121 to i8
  %123 = load i8*, i8** %3, align 8
  %124 = load i32, i32* %9, align 4
  %125 = sext i32 %124 to i64
  %126 = getelementptr inbounds i8, i8* %123, i64 %125
  store i8 %122, i8* %126, align 1
  br label %127

127:                                              ; preds = %114, %71
  br label %128

128:                                              ; preds = %127, %37
  br label %129

129:                                              ; preds = %128
  %130 = load i32, i32* %7, align 4
  %131 = add nsw i32 %130, -1
  store i32 %131, i32* %7, align 4
  %132 = load i32, i32* %8, align 4
  %133 = add nsw i32 %132, -1
  store i32 %133, i32* %8, align 4
  br label %20

134:                                              ; preds = %20
  %135 = load i8*, i8** %3, align 8
  %136 = getelementptr inbounds i8, i8* %135, i64 0
  %137 = load i8, i8* %136, align 1
  %138 = sext i8 %137 to i32
  %139 = icmp eq i32 %138, 48
  br i1 %139, label %140, label %158

140:                                              ; preds = %134
  store i32 1, i32* %7, align 4
  br label %141

141:                                              ; preds = %153, %140
  %142 = load i32, i32* %7, align 4
  %143 = load i32, i32* %5, align 4
  %144 = icmp slt i32 %142, %143
  br i1 %144, label %145, label %156

145:                                              ; preds = %141
  %146 = load i8*, i8** %3, align 8
  %147 = load i32, i32* %7, align 4
  %148 = sext i32 %147 to i64
  %149 = getelementptr inbounds i8, i8* %146, i64 %148
  %150 = load i8, i8* %149, align 1
  %151 = sext i8 %150 to i32
  %152 = call i32 (i8*, ...) @printf(i8* getelementptr inbounds ([3 x i8], [3 x i8]* @.str, i64 0, i64 0), i32 %151)
  br label %153

153:                                              ; preds = %145
  %154 = load i32, i32* %7, align 4
  %155 = add nsw i32 %154, 1
  store i32 %155, i32* %7, align 4
  br label %141

156:                                              ; preds = %141
  %157 = call i32 (i8*, ...) @printf(i8* getelementptr inbounds ([2 x i8], [2 x i8]* @.str.1, i64 0, i64 0))
  br label %161

158:                                              ; preds = %134
  %159 = load i8*, i8** %3, align 8
  %160 = call i32 (i8*, ...) @printf(i8* getelementptr inbounds ([4 x i8], [4 x i8]* @.str.2, i64 0, i64 0), i8* %159)
  br label %161

161:                                              ; preds = %158, %156
  ret void
}

; Function Attrs: nounwind readonly
declare dso_local i64 @strlen(i8*) #1

declare dso_local i32 @printf(i8*, ...) #2

; Function Attrs: noinline nounwind uwtable
define dso_local void @main() #0 {
  %1 = alloca [100 x i8], align 16
  %2 = alloca [100 x i8], align 16
  %3 = alloca i32, align 4
  %4 = alloca i32, align 4
  %5 = call i32 (i8*, ...) @__isoc99_scanf(i8* getelementptr inbounds ([3 x i8], [3 x i8]* @.str.3, i64 0, i64 0), i32* %3)
  store i32 1, i32* %4, align 4
  br label %6

6:                                                ; preds = %21, %0
  %7 = load i32, i32* %4, align 4
  %8 = load i32, i32* %3, align 4
  %9 = icmp sle i32 %7, %8
  br i1 %9, label %10, label %24

10:                                               ; preds = %6
  %11 = load i32, i32* %4, align 4
  %12 = icmp sgt i32 %11, 1
  br i1 %12, label %13, label %15

13:                                               ; preds = %10
  %14 = call i32 (i8*, ...) @printf(i8* getelementptr inbounds ([2 x i8], [2 x i8]* @.str.1, i64 0, i64 0))
  br label %15

15:                                               ; preds = %13, %10
  %16 = getelementptr inbounds [100 x i8], [100 x i8]* %1, i64 0, i64 0
  %17 = getelementptr inbounds [100 x i8], [100 x i8]* %2, i64 0, i64 0
  %18 = call i32 (i8*, ...) @__isoc99_scanf(i8* getelementptr inbounds ([5 x i8], [5 x i8]* @.str.4, i64 0, i64 0), i8* %16, i8* %17)
  %19 = getelementptr inbounds [100 x i8], [100 x i8]* %1, i64 0, i64 0
  %20 = getelementptr inbounds [100 x i8], [100 x i8]* %2, i64 0, i64 0
  call void @sub(i8* %19, i8* %20)
  br label %21

21:                                               ; preds = %15
  %22 = load i32, i32* %4, align 4
  %23 = add nsw i32 %22, 1
  store i32 %23, i32* %4, align 4
  br label %6

24:                                               ; preds = %6
  ret void
}

declare dso_local i32 @__isoc99_scanf(i8*, ...) #2


!llvm.module.flags = !{!0}
!llvm.ident = !{!1}

!0 = !{i32 1, !"wchar_size", i32 4}
!1 = !{!"clang version 10.0.0-4ubuntu1 "}
